Certificate:
    Data:
        Version: 1 (0x0)
        Serial Number: 1 (0x1)
        Signature Algorithm: md5WithRSAEncryption
        Issuer: C=AU, ST=Some-State, O=Internet Widgits Pty Ltd, CN=ca
        Validity
            Not Before: Apr 23 11:52:02 2022 GMT
            Not After : Apr 20 11:52:02 2032 GMT
        Subject: C=AU, ST=Some-State, O=Internet Widgits Pty Ltd, CN=cli
        Subject Public Key Info:
            Public Key Algorithm: rsaEncryption
                Public-Key: (1024 bit)
                Modulus:
                    00:bb:ff:e6:af:ad:a6:e7:eb:66:3a:58:12:03:26:
                    26:aa:fe:9d:2f:da:dd:4d:9c:3b:33:ca:ea:42:54:
                    b4:08:71:c9:d6:20:7e:43:4f:0a:df:ff:74:6f:e3:
                    f1:e9:21:d0:ef:2b:48:7e:cd:ba:71:60:ab:ce:b9:
                    06:da:23:4b:74:b3:2b:df:fd:d6:34:76:6e:3e:0d:
                    80:8d:50:08:f5:5d:1a:35:ea:da:c6:98:2a:ff:c0:
                    eb:c2:ea:ec:15:a7:93:44:12:e1:80:44:f0:7a:48:
                    7e:54:d6:d7:1c:90:03:d9:1c:e2:50:7b:50:41:1b:
                    92:c0:91:0d:54:ee:ae:8a:fd
                Exponent: 65537 (0x10001)
    Signature Algorithm: md5WithRSAEncryption
    Signature Value:
        39:f4:f3:f8:20:2f:03:8b:4e:40:9b:44:41:62:30:7f:8a:8f:
        f1:6b:fc:7d:a8:9e:ec:d1:7a:b4:c5:cf:4c:ba:30:19:af:f6:
        9d:d8:4f:17:ca:cb:7c:8f:f3:56:df:41:7c:43:f0:47:f4:ad:
        46:d7:9f:bd:56:ad:15:ee:c5:1a:a5:5f:48:e4:d4:97:ef:a6:
        37:7d:f6:b1:d1:e5:63:13:5e:4d:04:54:e1:a8:e3:42:b8:72:
        c5:38:aa:b0:52:ef:68:c9:12:ad:bf:b9:a6:ec:6c:35:d4:85:
        e4:b2:dc:94:25:31:55:56:65:59:c0:90:91:7a:bc:5a:e3:24:
        b2:46
-----BEGIN CERTIFICATE-----
MIICFDCCAX0CAQEwDQYJKoZIhvcNAQEEBQAwUjELMAkGA1UEBhMCQVUxEzARBgNV
BAgMClNvbWUtU3RhdGUxITAfBgNVBAoMGEludGVybmV0IFdpZGdpdHMgUHR5IEx0
ZDELMAkGA1UEAwwCY2EwHhcNMjIwNDIzMTE1MjAyWhcNMzIwNDIwMTE1MjAyWjBT
MQswCQYDVQQGEwJBVTETMBEGA1UECAwKU29tZS1TdGF0ZTEhMB8GA1UECgwYSW50
ZXJuZXQgV2lkZ2l0cyBQdHkgTHRkMQwwCgYDVQQDDANjbGkwgZ8wDQYJKoZIhvcN
AQEBBQADgY0AMIGJAoGBALv/5q+tpufrZjpYEgMmJqr+nS/a3U2cOzPK6kJUtAhx
ydYgfkNPCt//dG/j8ekh0O8rSH7NunFgq865BtojS3SzK9/91jR2bj4NgI1QCPVd
GjXq2saYKv/A68Lq7BWnk0QS4YBE8HpIflTW1xyQA9kc4lB7UEEbksCRDVTuror9
AgMBAAEwDQYJKoZIhvcNAQEEBQADgYEAOfTz+CAvA4tOQJtEQWIwf4qP8Wv8faie
7NF6tMXPTLowGa/2ndhPF8rLfI/zVt9BfEPwR/StRtefvVatFe7FGqVfSOTUl++m
N332sdHlYxNeTQRU4ajjQrhyxTiqsFLvaMkSrb+5puxsNdSF5LLclCUxVVZlWcCQ
kXq8WuMkskY=
-----END CERTIFICATE-----
