Certificate:
    Data:
        Version: 1 (0x0)
        Serial Number: 1 (0x1)
        Signature Algorithm: md5WithRSAEncryption
        Issuer: C=AU, ST=Some-State, O=Internet Widgits Pty Ltd, CN=shii
        Validity
            Not Before: Apr 21 10:35:52 2022 GMT
            Not After : Apr 18 10:35:52 2032 GMT
        Subject: C=AU, ST=Some-State, O=Internet Widgits Pty Ltd, CN=shii
        Subject Public Key Info:
            Public Key Algorithm: rsaEncryption
                Public-Key: (1024 bit)
                Modulus:
                    00:eb:f4:67:7e:55:72:5d:8c:8e:aa:65:eb:65:5e:
                    2b:79:8b:51:1d:7c:53:5b:ff:6e:66:7b:63:3e:1a:
                    3e:d0:c7:0a:91:c0:ca:1c:6a:e2:fa:48:51:19:d1:
                    c5:b0:dd:10:3c:4a:d7:11:01:88:55:5e:bb:4f:8b:
                    d4:e6:2f:fa:bc:f0:6d:f4:e0:cb:aa:f6:47:53:24:
                    75:ef:f1:06:81:f5:ba:22:d1:cd:00:b8:7f:3c:a5:
                    90:b0:6a:4e:01:25:6d:7c:58:f0:77:30:fc:fc:ba:
                    fb:4f:8d:26:54:c6:73:95:8d:8d:e3:cb:2c:75:da:
                    76:39:89:6c:e6:ea:b1:73:a7
                Exponent: 65537 (0x10001)
    Signature Algorithm: md5WithRSAEncryption
        99:76:8e:0e:80:4b:aa:06:4e:d2:ab:b8:86:55:67:ff:ec:b6:
        15:a7:22:ac:57:f9:54:06:b6:6a:54:ae:3c:ee:1b:63:cc:69:
        ef:51:18:95:39:db:25:bd:a7:04:1e:f7:cc:0d:db:ce:ec:f9:
        70:a1:0e:a3:18:7a:83:c5:ed:3f:02:b6:b4:d2:2f:ef:77:a3:
        7f:05:3a:d6:0b:46:9a:d4:e3:bd:8a:fd:2d:68:52:b7:27:0d:
        5c:0c:03:38:53:7b:69:ab:26:77:af:d8:f0:b4:e4:3f:0f:ff:
        aa:ba:b0:e8:d9:73:68:16:43:98:fc:13:a5:16:47:c7:b3:77:
        e1:6e
-----BEGIN CERTIFICATE-----
MIICFzCCAYACAQEwDQYJKoZIhvcNAQEEBQAwVDELMAkGA1UEBhMCQVUxEzARBgNV
BAgMClNvbWUtU3RhdGUxITAfBgNVBAoMGEludGVybmV0IFdpZGdpdHMgUHR5IEx0
ZDENMAsGA1UEAwwEc2hpaTAeFw0yMjA0MjExMDM1NTJaFw0zMjA0MTgxMDM1NTJa
MFQxCzAJBgNVBAYTAkFVMRMwEQYDVQQIDApTb21lLVN0YXRlMSEwHwYDVQQKDBhJ
bnRlcm5ldCBXaWRnaXRzIFB0eSBMdGQxDTALBgNVBAMMBHNoaWkwgZ8wDQYJKoZI
hvcNAQEBBQADgY0AMIGJAoGBAOv0Z35Vcl2Mjqpl62VeK3mLUR18U1v/bmZ7Yz4a
PtDHCpHAyhxq4vpIURnRxbDdEDxK1xEBiFVeu0+L1OYv+rzwbfTgy6r2R1Mkde/x
BoH1uiLRzQC4fzylkLBqTgElbXxY8Hcw/Py6+0+NJlTGc5WNjePLLHXadjmJbObq
sXOnAgMBAAEwDQYJKoZIhvcNAQEEBQADgYEAmXaODoBLqgZO0qu4hlVn/+y2Faci
rFf5VAa2alSuPO4bY8xp71EYlTnbJb2nBB73zA3bzuz5cKEOoxh6g8XtPwK2tNIv
73ejfwU61gtGmtTjvYr9LWhStycNXAwDOFN7aasmd6/Y8LTkPw//qrqw6NlzaBZD
mPwTpRZHx7N34W4=
-----END CERTIFICATE-----
