Certificate:
    Data:
        Version: 1 (0x0)
        Serial Number: 1 (0x1)
    Signature Algorithm: md5WithRSAEncryption
        Issuer: C=XX, L=Default City, O=Default Company Ltd, CN=shii
        Validity
            Not Before: Apr 21 14:54:13 2022 GMT
            Not After : Apr 18 14:54:13 2032 GMT
        Subject: C=XX, L=Default City, O=Default Company Ltd, CN=shii
        Subject Public Key Info:
            Public Key Algorithm: rsaEncryption
                Public-Key: (1024 bit)
                Modulus:
                    00:c5:e2:8d:e9:4e:0f:3a:5d:b4:fe:19:99:54:4c:
                    48:dd:9d:c5:63:97:4e:07:50:66:9b:91:ea:af:ee:
                    eb:26:35:f3:b8:8a:21:3e:6c:35:97:d5:57:e1:22:
                    1a:ea:6f:63:29:a1:85:f1:e3:b5:95:af:ba:35:ee:
                    b3:4d:ff:72:d0:d0:ea:59:cf:9f:85:c0:ba:8f:4e:
                    97:12:66:97:b2:07:d2:27:a7:21:c3:53:29:bf:c7:
                    1f:08:bb:9c:0c:89:d8:a9:b3:13:e4:26:6b:5b:e2:
                    47:e9:6f:af:00:b0:40:46:be:10:e8:d2:14:ae:84:
                    6d:cf:27:3c:c1:17:1f:47:af
                Exponent: 65537 (0x10001)
    Signature Algorithm: md5WithRSAEncryption
         59:1c:0c:3e:12:65:4c:ed:c7:d0:57:22:f6:0d:72:5a:cf:40:
         20:46:53:1a:13:3c:c0:c5:42:54:cc:db:e0:c7:ae:13:d7:6d:
         d6:8a:56:a9:3e:dc:68:50:d8:3e:e6:7c:48:78:f0:9b:fd:db:
         c6:8f:ad:fc:ea:9b:fa:9f:37:5c:b6:f8:f9:3d:b1:f4:10:13:
         41:af:65:9d:2c:a1:8a:e1:d2:ff:c1:1e:67:53:29:84:10:23:
         9d:a9:ad:d2:68:b2:eb:6b:bc:a9:87:bd:21:dd:74:57:eb:a1:
         6c:0a:b0:6a:f5:37:a9:21:87:47:82:de:bf:18:1f:50:84:d3:
         fb:ba
-----BEGIN CERTIFICATE-----
MIICETCCAXoCAQEwDQYJKoZIhvcNAQEEBQAwUTELMAkGA1UEBhMCWFgxFTATBgNV
BAcMDERlZmF1bHQgQ2l0eTEcMBoGA1UECgwTRGVmYXVsdCBDb21wYW55IEx0ZDEN
MAsGA1UEAwwEc2hpaTAeFw0yMjA0MjExNDU0MTNaFw0zMjA0MTgxNDU0MTNaMFEx
CzAJBgNVBAYTAlhYMRUwEwYDVQQHDAxEZWZhdWx0IENpdHkxHDAaBgNVBAoME0Rl
ZmF1bHQgQ29tcGFueSBMdGQxDTALBgNVBAMMBHNoaWkwgZ8wDQYJKoZIhvcNAQEB
BQADgY0AMIGJAoGBAMXijelODzpdtP4ZmVRMSN2dxWOXTgdQZpuR6q/u6yY187iK
IT5sNZfVV+EiGupvYymhhfHjtZWvujXus03/ctDQ6lnPn4XAuo9OlxJml7IH0ien
IcNTKb/HHwi7nAyJ2KmzE+Qma1viR+lvrwCwQEa+EOjSFK6Ebc8nPMEXH0evAgMB
AAEwDQYJKoZIhvcNAQEEBQADgYEAWRwMPhJlTO3H0Fci9g1yWs9AIEZTGhM8wMVC
VMzb4MeuE9dt1opWqT7caFDYPuZ8SHjwm/3bxo+t/Oqb+p83XLb4+T2x9BATQa9l
nSyhiuHS/8EeZ1MphBAjnamt0miy62u8qYe9Id10V+uhbAqwavU3qSGHR4Levxgf
UITT+7o=
-----END CERTIFICATE-----
