Certificate:
    Data:
        Version: 1 (0x0)
        Serial Number: 1 (0x1)
        Signature Algorithm: md5WithRSAEncryption
        Issuer: C=AU, ST=Some-State, O=Internet Widgits Pty Ltd, CN=shii
        Validity
            Not Before: Apr 21 10:35:37 2022 GMT
            Not After : Apr 18 10:35:37 2032 GMT
        Subject: C=AU, ST=Some-State, O=Internet Widgits Pty Ltd, CN=shii
        Subject Public Key Info:
            Public Key Algorithm: rsaEncryption
                Public-Key: (1024 bit)
                Modulus:
                    00:c2:b7:79:63:43:03:b9:3b:ac:c4:29:9e:d4:6f:
                    79:56:c4:53:77:d4:e4:43:65:af:05:1f:fe:ac:80:
                    f0:02:ae:e8:72:24:7b:78:b0:18:61:c9:a8:68:a5:
                    c4:73:07:2f:fb:fc:70:ab:94:99:19:f6:a5:a7:37:
                    13:f3:5e:de:9c:08:2f:43:7b:02:74:01:ba:59:ef:
                    8a:43:05:07:44:4d:9a:71:ca:a4:dd:81:87:6f:a0:
                    1e:7a:4d:b9:ba:47:11:11:df:1d:98:74:c4:69:b0:
                    e5:53:9a:e0:7d:63:75:58:7d:c7:ef:63:af:19:7d:
                    d9:4c:dc:60:9a:3a:9d:23:b3
                Exponent: 65537 (0x10001)
    Signature Algorithm: md5WithRSAEncryption
        6c:34:60:9d:38:37:3a:ec:f3:bb:ae:0e:ce:8f:db:4f:17:87:
        52:59:6b:12:fd:bd:e7:fb:e7:dd:30:47:ca:3b:6d:e8:93:53:
        2d:3a:ba:51:8a:e6:bd:99:74:c6:bc:6b:d2:3f:c1:ff:ce:ae:
        31:3d:5b:3e:94:82:16:cc:58:ca:49:63:31:7f:2d:8e:50:2d:
        f8:1c:63:e4:b3:53:2c:7d:c5:5c:80:c3:7d:25:de:4b:93:17:
        d7:35:d2:35:b7:a3:08:10:4e:e5:6f:8e:61:ea:50:e6:2b:6a:
        07:86:6f:df:26:08:91:fa:68:9d:fa:fb:63:71:29:e3:91:4b:
        2e:0a
-----BEGIN CERTIFICATE-----
MIICFzCCAYACAQEwDQYJKoZIhvcNAQEEBQAwVDELMAkGA1UEBhMCQVUxEzARBgNV
BAgMClNvbWUtU3RhdGUxITAfBgNVBAoMGEludGVybmV0IFdpZGdpdHMgUHR5IEx0
ZDENMAsGA1UEAwwEc2hpaTAeFw0yMjA0MjExMDM1MzdaFw0zMjA0MTgxMDM1Mzda
MFQxCzAJBgNVBAYTAkFVMRMwEQYDVQQIDApTb21lLVN0YXRlMSEwHwYDVQQKDBhJ
bnRlcm5ldCBXaWRnaXRzIFB0eSBMdGQxDTALBgNVBAMMBHNoaWkwgZ8wDQYJKoZI
hvcNAQEBBQADgY0AMIGJAoGBAMK3eWNDA7k7rMQpntRveVbEU3fU5ENlrwUf/qyA
8AKu6HIke3iwGGHJqGilxHMHL/v8cKuUmRn2pac3E/Ne3pwIL0N7AnQBulnvikMF
B0RNmnHKpN2Bh2+gHnpNubpHERHfHZh0xGmw5VOa4H1jdVh9x+9jrxl92UzcYJo6
nSOzAgMBAAEwDQYJKoZIhvcNAQEEBQADgYEAbDRgnTg3Ouzzu64Ozo/bTxeHUllr
Ev295/vn3TBHyjtt6JNTLTq6UYrmvZl0xrxr0j/B/86uMT1bPpSCFsxYykljMX8t
jlAt+Bxj5LNTLH3FXIDDfSXeS5MX1zXSNbejCBBO5W+OYepQ5itqB4Zv3yYIkfpo
nfr7Y3Ep45FLLgo=
-----END CERTIFICATE-----
