Certificate:
    Data:
        Version: 1 (0x0)
        Serial Number: 1 (0x1)
        Signature Algorithm: md5WithRSAEncryption
        Issuer: C=AU, ST=Some-State, O=Internet Widgits Pty Ltd, CN=ca
        Validity
            Not Before: Apr 24 13:37:43 2022 GMT
            Not After : Apr 21 13:37:43 2032 GMT
        Subject: C=AU, ST=Some-State, O=Internet Widgits Pty Ltd, CN=app
        Subject Public Key Info:
            Public Key Algorithm: rsaEncryption
                Public-Key: (1024 bit)
                Modulus:
                    00:c7:4b:51:82:84:ee:46:fe:c0:b4:67:e4:34:ee:
                    55:de:17:80:cb:02:95:63:8c:c8:a0:cb:8b:3c:de:
                    3a:24:4b:d3:e0:69:68:e9:fb:c6:34:13:01:ac:51:
                    96:bd:36:40:a3:51:fd:08:04:21:95:7a:92:cb:98:
                    29:62:34:42:09:cd:c7:4c:7f:60:ec:19:82:26:56:
                    e9:c1:01:5d:fa:f0:85:3e:29:bf:c4:b1:7a:d2:46:
                    30:44:28:c0:15:d0:a3:8c:53:2f:28:af:ca:ea:43:
                    05:09:93:c6:73:bb:b7:5a:ee:cb:84:e1:71:e3:ab:
                    4a:aa:b2:44:26:da:aa:61:ab
                Exponent: 65537 (0x10001)
    Signature Algorithm: md5WithRSAEncryption
    Signature Value:
        df:8d:45:8f:17:6e:61:ad:b8:68:88:cf:93:28:c5:ed:95:ae:
        5d:bd:60:24:6e:c6:93:dd:e9:8f:ae:a7:92:7b:58:b6:75:28:
        59:66:56:2a:3c:d3:3d:86:36:c6:ae:b3:6d:09:46:30:51:9e:
        8f:30:23:2f:a8:4c:75:7a:ee:ba:a6:ef:d6:8c:2e:b0:e4:9a:
        4e:aa:ba:3b:68:0b:50:4d:09:a0:bc:b9:c2:6b:ce:c2:3c:76:
        e8:ea:d0:27:af:94:13:de:7a:05:99:35:62:8c:ad:18:27:2b:
        99:48:17:6b:fd:cf:31:15:4e:a2:fc:05:61:e5:4f:aa:f0:02:
        87:f3
-----BEGIN CERTIFICATE-----
MIICFDCCAX0CAQEwDQYJKoZIhvcNAQEEBQAwUjELMAkGA1UEBhMCQVUxEzARBgNV
BAgMClNvbWUtU3RhdGUxITAfBgNVBAoMGEludGVybmV0IFdpZGdpdHMgUHR5IEx0
ZDELMAkGA1UEAwwCY2EwHhcNMjIwNDI0MTMzNzQzWhcNMzIwNDIxMTMzNzQzWjBT
MQswCQYDVQQGEwJBVTETMBEGA1UECAwKU29tZS1TdGF0ZTEhMB8GA1UECgwYSW50
ZXJuZXQgV2lkZ2l0cyBQdHkgTHRkMQwwCgYDVQQDDANhcHAwgZ8wDQYJKoZIhvcN
AQEBBQADgY0AMIGJAoGBAMdLUYKE7kb+wLRn5DTuVd4XgMsClWOMyKDLizzeOiRL
0+BpaOn7xjQTAaxRlr02QKNR/QgEIZV6ksuYKWI0QgnNx0x/YOwZgiZW6cEBXfrw
hT4pv8SxetJGMEQowBXQo4xTLyivyupDBQmTxnO7t1ruy4ThceOrSqqyRCbaqmGr
AgMBAAEwDQYJKoZIhvcNAQEEBQADgYEA341FjxduYa24aIjPkyjF7ZWuXb1gJG7G
k93pj66nkntYtnUoWWZWKjzTPYY2xq6zbQlGMFGejzAjL6hMdXruuqbv1owusOSa
Tqq6O2gLUE0JoLy5wmvOwjx26OrQJ6+UE956BZk1YoytGCcrmUgXa/3PMRVOovwF
YeVPqvACh/M=
-----END CERTIFICATE-----
