Certificate:
    Data:
        Version: 1 (0x0)
        Serial Number: 1 (0x1)
        Signature Algorithm: md5WithRSAEncryption
        Issuer: C=AU, ST=Some-State, O=Internet Widgits Pty Ltd, CN=ca
        Validity
            Not Before: Apr 23 11:51:59 2022 GMT
            Not After : Apr 20 11:51:59 2032 GMT
        Subject: C=AU, ST=Some-State, O=Internet Widgits Pty Ltd, CN=gate
        Subject Public Key Info:
            Public Key Algorithm: rsaEncryption
                Public-Key: (1024 bit)
                Modulus:
                    00:a9:81:f9:b5:27:00:c4:7c:19:89:be:20:e4:d8:
                    75:8f:35:53:cf:c0:e2:f9:32:1d:a7:ed:18:c1:ad:
                    ed:27:b4:5d:16:dd:0d:57:83:ca:4d:8b:26:5a:87:
                    ed:13:c2:f3:12:90:a4:f4:2f:3e:2e:62:47:93:aa:
                    ed:fe:23:7d:eb:b8:37:53:e8:80:1e:4b:4b:c7:04:
                    99:04:f7:8e:02:d0:5a:df:e1:32:f6:d6:2b:15:87:
                    a3:99:b0:23:ad:14:a8:af:93:3b:17:9a:fa:be:7a:
                    22:d0:40:83:53:64:0b:00:e4:d2:57:a3:28:b5:c5:
                    d2:62:7c:ee:ac:04:cf:e7:3b
                Exponent: 65537 (0x10001)
    Signature Algorithm: md5WithRSAEncryption
    Signature Value:
        b1:b1:42:6b:11:a3:21:be:73:2b:07:b6:ee:01:ed:ce:f4:c8:
        5e:aa:12:52:2e:a0:21:a1:ed:e4:0e:f1:e0:8a:d4:13:17:a3:
        28:02:41:cb:c1:a6:68:e4:ef:11:02:a9:53:7a:69:90:fc:2b:
        9b:88:58:8b:c5:36:bb:fb:91:39:f3:f0:ad:ef:de:ee:7a:e6:
        c6:59:82:6b:1b:c8:10:47:31:2b:18:77:d0:e5:f5:b4:79:dc:
        97:8b:51:3c:d4:28:ca:d9:b6:84:7c:58:09:59:e7:ee:ba:be:
        01:ef:b0:b3:c0:2f:ca:5d:7c:76:50:70:a9:80:c8:c7:3c:79:
        b5:d6
-----BEGIN CERTIFICATE-----
MIICFTCCAX4CAQEwDQYJKoZIhvcNAQEEBQAwUjELMAkGA1UEBhMCQVUxEzARBgNV
BAgMClNvbWUtU3RhdGUxITAfBgNVBAoMGEludGVybmV0IFdpZGdpdHMgUHR5IEx0
ZDELMAkGA1UEAwwCY2EwHhcNMjIwNDIzMTE1MTU5WhcNMzIwNDIwMTE1MTU5WjBU
MQswCQYDVQQGEwJBVTETMBEGA1UECAwKU29tZS1TdGF0ZTEhMB8GA1UECgwYSW50
ZXJuZXQgV2lkZ2l0cyBQdHkgTHRkMQ0wCwYDVQQDDARnYXRlMIGfMA0GCSqGSIb3
DQEBAQUAA4GNADCBiQKBgQCpgfm1JwDEfBmJviDk2HWPNVPPwOL5Mh2n7RjBre0n
tF0W3Q1Xg8pNiyZah+0TwvMSkKT0Lz4uYkeTqu3+I33ruDdT6IAeS0vHBJkE944C
0Frf4TL21isVh6OZsCOtFKivkzsXmvq+eiLQQINTZAsA5NJXoyi1xdJifO6sBM/n
OwIDAQABMA0GCSqGSIb3DQEBBAUAA4GBALGxQmsRoyG+cysHtu4B7c70yF6qElIu
oCGh7eQO8eCK1BMXoygCQcvBpmjk7xECqVN6aZD8K5uIWIvFNrv7kTnz8K3v3u56
5sZZgmsbyBBHMSsYd9Dl9bR53JeLUTzUKMrZtoR8WAlZ5+66vgHvsLPAL8pdfHZQ
cKmAyMc8ebXW
-----END CERTIFICATE-----
