Certificate:
    Data:
        Version: 1 (0x0)
        Serial Number: 1 (0x1)
    Signature Algorithm: md5WithRSAEncryption
        Issuer: C=XX, L=Default City, O=Default Company Ltd, CN=shii
        Validity
            Not Before: Apr 21 14:54:17 2022 GMT
            Not After : Apr 18 14:54:17 2032 GMT
        Subject: C=XX, L=Default City, O=Default Company Ltd, CN=shii
        Subject Public Key Info:
            Public Key Algorithm: rsaEncryption
                Public-Key: (1024 bit)
                Modulus:
                    00:95:78:24:69:c5:67:5a:14:cd:fa:3b:79:be:cf:
                    8a:4a:aa:15:f1:4e:d6:b2:2c:80:b5:ff:80:67:bf:
                    dd:ac:39:bb:f2:7b:fa:cc:bf:06:44:e3:88:63:b9:
                    a2:f0:0a:3c:8f:04:bf:da:0e:78:3e:f9:a0:5d:7d:
                    7a:04:91:0a:48:4a:ea:06:72:a8:eb:7f:dd:66:3b:
                    b8:b5:87:0d:42:9e:75:1a:7d:b8:8e:25:d8:90:7e:
                    8a:cc:dc:04:bf:44:79:c9:ef:57:f6:27:54:99:6a:
                    fd:d2:d9:77:d4:91:f7:ab:1c:f8:dd:65:f1:4e:7b:
                    28:5f:75:b4:2e:83:31:3c:71
                Exponent: 65537 (0x10001)
    Signature Algorithm: md5WithRSAEncryption
         76:67:a3:e5:c7:85:74:54:61:21:67:ef:23:19:f9:bb:9b:07:
         dc:fd:13:b0:e4:65:46:24:0b:e4:7d:b7:4b:60:09:c5:49:9c:
         94:6b:4a:08:6b:5f:ec:1e:0a:99:61:dd:48:84:49:09:b8:7b:
         90:27:5e:34:19:1a:8b:36:1c:2f:fa:fa:f2:f8:da:a5:91:da:
         29:db:55:35:62:a0:82:fc:83:20:85:98:ff:bf:c4:66:36:11:
         48:e0:d1:61:68:1a:00:f5:2b:e1:d0:86:63:1e:96:bd:5a:36:
         ee:41:62:70:21:e5:56:27:71:41:c3:3c:0f:9e:48:c1:0b:19:
         db:1b
-----BEGIN CERTIFICATE-----
MIICETCCAXoCAQEwDQYJKoZIhvcNAQEEBQAwUTELMAkGA1UEBhMCWFgxFTATBgNV
BAcMDERlZmF1bHQgQ2l0eTEcMBoGA1UECgwTRGVmYXVsdCBDb21wYW55IEx0ZDEN
MAsGA1UEAwwEc2hpaTAeFw0yMjA0MjExNDU0MTdaFw0zMjA0MTgxNDU0MTdaMFEx
CzAJBgNVBAYTAlhYMRUwEwYDVQQHDAxEZWZhdWx0IENpdHkxHDAaBgNVBAoME0Rl
ZmF1bHQgQ29tcGFueSBMdGQxDTALBgNVBAMMBHNoaWkwgZ8wDQYJKoZIhvcNAQEB
BQADgY0AMIGJAoGBAJV4JGnFZ1oUzfo7eb7PikqqFfFO1rIsgLX/gGe/3aw5u/J7
+sy/BkTjiGO5ovAKPI8Ev9oOeD75oF19egSRCkhK6gZyqOt/3WY7uLWHDUKedRp9
uI4l2JB+iszcBL9EecnvV/YnVJlq/dLZd9SR96sc+N1l8U57KF91tC6DMTxxAgMB
AAEwDQYJKoZIhvcNAQEEBQADgYEAdmej5ceFdFRhIWfvIxn5u5sH3P0TsORlRiQL
5H23S2AJxUmclGtKCGtf7B4KmWHdSIRJCbh7kCdeNBkaizYcL/r68vjapZHaKdtV
NWKggvyDIIWY/7/EZjYRSODRYWgaAPUr4dCGYx6WvVo27kFicCHlVidxQcM8D55I
wQsZ2xs=
-----END CERTIFICATE-----
